; Function Attrs: nounwind uwtable
define void @Gia_ManMulFindXors2_rec(ptr noundef %0, ptr noundef %1, ptr noundef %2) local_unnamed_addr #0 {
  %4 = alloca ptr, align 8
  %5 = alloca ptr, align 8
  %.val = load i64, ptr %1, align 4
  %6 = and i64 %.val, 2147483648
  %.not.i = icmp ne i64 %6, 0
  %7 = and i64 %.val, 536870911
  %8 = icmp eq i64 %7, 536870911
  %narrow.i.not = or i1 %.not.i, %8
  br i1 %narrow.i.not, label %70, label %9

9:                                                ; preds = %3
  %10 = getelementptr inbounds nuw i8, ptr %0, i64 616
  %11 = load ptr, ptr %10, align 8, !tbaa !3
  %12 = getelementptr i8, ptr %0, i64 32
  %.val.i = load ptr, ptr %12, align 8, !tbaa !28
  %13 = ptrtoint ptr %1 to i64
  %14 = ptrtoint ptr %.val.i to i64
  %15 = sub i64 %13, %14
  %16 = sdiv exact i64 %15, 12
  %sext.i = shl i64 %16, 32
  %17 = ashr exact i64 %sext.i, 30
  %18 = getelementptr inbounds i8, ptr %11, i64 %17
  %19 = load i32, ptr %18, align 4, !tbaa !29
  %20 = getelementptr inbounds nuw i8, ptr %0, i64 176
  %21 = load i32, ptr %20, align 8, !tbaa !30
  %.not = icmp eq i32 %19, %21
  br i1 %.not, label %70, label %22

22:                                               ; preds = %9
  store i32 %21, ptr %18, align 4, !tbaa !29
  %23 = load i64, ptr %1, align 4
  %24 = and i64 %23, 1073741824
  %.not23 = icmp eq i64 %24, 0
  br i1 %.not23, label %25, label %60

25:                                               ; preds = %22
  %26 = trunc i64 %23 to i32
  %27 = and i32 %26, 536870912
  %.not24 = icmp eq i32 %27, 0
  %28 = and i64 %23, 2305843009213693952
  %.not25 = icmp eq i64 %28, 0
  %or.cond = and i1 %.not25, %.not24
  br i1 %or.cond, label %29, label %70

29:                                               ; preds = %25
  %30 = and i64 %23, 536870911
  %31 = sub nsw i64 0, %30
  %32 = getelementptr inbounds %struct.Gia_Obj_t_, ptr %1, i64 %31
  %33 = getelementptr i8, ptr %0, i64 144
  %.val29 = load ptr, ptr %33, align 8, !tbaa !31
  %34 = ptrtoint ptr %32 to i64
  %35 = sub i64 %34, %14
  %36 = sdiv exact i64 %35, 12
  %sext.i36 = shl i64 %36, 32
  %37 = ashr exact i64 %sext.i36, 30
  %38 = getelementptr inbounds i8, ptr %.val29, i64 %37
  %39 = load i32, ptr %38, align 4, !tbaa !29
  %40 = icmp sgt i32 %39, 3
  br i1 %40, label %41, label %70

41:                                               ; preds = %29
  %42 = lshr i64 %23, 32
  %43 = and i64 %42, 536870911
  %44 = sub nsw i64 0, %43
  %45 = getelementptr inbounds %struct.Gia_Obj_t_, ptr %1, i64 %44
  %46 = ptrtoint ptr %45 to i64
  %47 = sub i64 %46, %14
  %48 = sdiv exact i64 %47, 12
  %sext.i37 = shl i64 %48, 32
  %49 = ashr exact i64 %sext.i37, 30
  %50 = getelementptr inbounds i8, ptr %.val29, i64 %49
  %51 = load i32, ptr %50, align 4, !tbaa !29
  %52 = icmp sgt i32 %51, 3
  br i1 %52, label %53, label %70

53:                                               ; preds = %41
  %54 = trunc i64 %16 to i32
  %55 = and i32 %26, 536870911
  %56 = sub nsw i32 %54, %55
  %57 = trunc nuw i64 %42 to i32
  %58 = and i32 %57, 536870911
  %59 = sub nsw i32 %54, %58
  tail call fastcc void @Vec_IntPushTwo(ptr noundef %2, i32 noundef %56, i32 noundef %59)
  br label %70

60:                                               ; preds = %22
  call void @llvm.lifetime.start.p0(i64 8, ptr nonnull %4) #19
  call void @llvm.lifetime.start.p0(i64 8, ptr nonnull %5) #19
  %61 = call i32 @Gia_ObjRecognizeExor(ptr noundef nonnull %1, ptr noundef nonnull %4, ptr noundef nonnull %5) #19
  %62 = load ptr, ptr %4, align 8, !tbaa !32
  %63 = ptrtoint ptr %62 to i64
  %64 = and i64 %63, -2
  %65 = inttoptr i64 %64 to ptr
  call void @Gia_ManMulFindXors2_rec(ptr noundef nonnull %0, ptr noundef %65, ptr noundef %2)
  %66 = load ptr, ptr %5, align 8, !tbaa !32
  %67 = ptrtoint ptr %66 to i64
  %68 = and i64 %67, -2
  %69 = inttoptr i64 %68 to ptr
  call void @Gia_ManMulFindXors2_rec(ptr noundef nonnull %0, ptr noundef %69, ptr noundef %2)
  call void @llvm.lifetime.end.p0(i64 8, ptr nonnull %5) #19
  call void @llvm.lifetime.end.p0(i64 8, ptr nonnull %4) #19
  br label %70

70:                                               ; preds = %25, %29, %41, %53, %9, %3, %60
  ret void
}